; Function Attrs: mustprogress uwtable
define dso_local void @_ZN4Luau28TypeFunctionReductionGuesser4stepEv(ptr noundef nonnull align 8 dereferenceable(176) %0) local_unnamed_addr #8 align 2 {
  %2 = getelementptr inbounds nuw i8, ptr %0, i64 80
  %3 = load ptr, ptr %2, align 8, !tbaa !99
  %4 = getelementptr inbounds nuw i8, ptr %0, i64 96
  %5 = load i64, ptr %4, align 8, !tbaa !104
  %6 = getelementptr inbounds nuw ptr, ptr %3, i64 %5
  %7 = load ptr, ptr %6, align 8, !tbaa !30
  %8 = add i64 %5, 1
  store i64 %8, ptr %4, align 8, !tbaa !104
  %9 = getelementptr inbounds nuw i8, ptr %0, i64 104
  %10 = load i64, ptr %9, align 8, !tbaa !105
  %11 = add i64 %10, -1
  store i64 %11, ptr %9, align 8, !tbaa !105
  %12 = getelementptr inbounds nuw i8, ptr %0, i64 88
  %13 = load i64, ptr %12, align 8, !tbaa !101
  %14 = icmp eq i64 %8, %13
  br i1 %14, label %15, label %_ZN4Luau8VecDequeIPKNS_4TypeESaIS3_EE9pop_frontEv.exit

15:                                               ; preds = %1
  store i64 0, ptr %4, align 8, !tbaa !104
  br label %_ZN4Luau8VecDequeIPKNS_4TypeESaIS3_EE9pop_frontEv.exit

_ZN4Luau8VecDequeIPKNS_4TypeESaIS3_EE9pop_frontEv.exit: ; preds = %1, %15
  %16 = tail call noundef ptr @_ZN4Luau6followEPKNS_4TypeE(ptr noundef %7)
  %.not.i.i = icmp eq ptr %16, null
  br i1 %.not.i.i, label %_ZN4Luau3getINS_24TypeFunctionInstanceTypeEEEPKT_PKNS_4TypeE.exit.thread, label %17

17:                                               ; preds = %_ZN4Luau8VecDequeIPKNS_4TypeESaIS3_EE9pop_frontEv.exit
  %18 = load i32, ptr %16, align 8, !tbaa !85
  %19 = icmp eq i32 %18, 20
  br i1 %19, label %_ZN4Luau3getINS_24TypeFunctionInstanceTypeEEEPKT_PKNS_4TypeE.exit, label %_ZN4Luau3getINS_24TypeFunctionInstanceTypeEEEPKT_PKNS_4TypeE.exit.thread

_ZN4Luau3getINS_24TypeFunctionInstanceTypeEEEPKT_PKNS_4TypeE.exit: ; preds = %17
  %20 = getelementptr inbounds nuw i8, ptr %16, i64 8
  tail call void @_ZN4Luau28TypeFunctionReductionGuesser30inferTypeFunctionSubstitutionsEPKNS_4TypeEPKNS_24TypeFunctionInstanceTypeE(ptr noundef nonnull align 8 dereferenceable(176) %0, ptr noundef nonnull %16, ptr noundef nonnull %20)
  br label %_ZN4Luau3getINS_24TypeFunctionInstanceTypeEEEPKT_PKNS_4TypeE.exit.thread

_ZN4Luau3getINS_24TypeFunctionInstanceTypeEEEPKT_PKNS_4TypeE.exit.thread: ; preds = %_ZN4Luau8VecDequeIPKNS_4TypeESaIS3_EE9pop_frontEv.exit, %17, %_ZN4Luau3getINS_24TypeFunctionInstanceTypeEEEPKT_PKNS_4TypeE.exit
  ret void
}